; Function Attrs: nounwind uwtable
define dso_local void @add_column_to_pathtarget(ptr noundef captures(none) %0, ptr noundef %1, i32 noundef %2) local_unnamed_addr #0 {
  %4 = getelementptr inbounds nuw i8, ptr %0, i64 8
  %5 = load ptr, ptr %4, align 8
  %6 = tail call ptr @lappend(ptr noundef %5, ptr noundef %1) #10
  store ptr %6, ptr %4, align 8
  %7 = getelementptr inbounds nuw i8, ptr %0, i64 16
  %8 = load ptr, ptr %7, align 8
  %.not = icmp eq ptr %8, null
  br i1 %.not, label %17, label %9

9:                                                ; preds = %3
  %.not.i = icmp eq ptr %6, null
  br i1 %.not.i, label %list_length.exit, label %10

10:                                               ; preds = %9
  %11 = getelementptr inbounds nuw i8, ptr %6, i64 4
  %12 = load i32, ptr %11, align 4
  br label %list_length.exit

list_length.exit:                                 ; preds = %9, %10
  %13 = phi i32 [ %12, %10 ], [ 0, %9 ]
  %14 = sext i32 %13 to i64
  %15 = shl nsw i64 %14, 2
  %16 = tail call ptr @repalloc(ptr noundef nonnull %8, i64 noundef %15) #10
  br label %.sink.split

17:                                               ; preds = %3
  %.not19 = icmp eq i32 %2, 0
  br i1 %.not19, label %29, label %18

18:                                               ; preds = %17
  %.not.i20 = icmp eq ptr %6, null
  br i1 %.not.i20, label %list_length.exit21, label %19

19:                                               ; preds = %18
  %20 = getelementptr inbounds nuw i8, ptr %6, i64 4
  %21 = load i32, ptr %20, align 4
  br label %list_length.exit21

list_length.exit21:                               ; preds = %18, %19
  %22 = phi i32 [ %21, %19 ], [ 0, %18 ]
  %23 = sext i32 %22 to i64
  %24 = shl nsw i64 %23, 2
  %25 = tail call ptr @palloc0(i64 noundef %24) #10
  br label %.sink.split

.sink.split:                                      ; preds = %list_length.exit, %list_length.exit21
  %.sink = phi ptr [ %25, %list_length.exit21 ], [ %16, %list_length.exit ]
  %.sink24 = phi i32 [ %22, %list_length.exit21 ], [ %13, %list_length.exit ]
  store ptr %.sink, ptr %7, align 8
  %26 = add i32 %.sink24, -1
  %27 = sext i32 %26 to i64
  %28 = getelementptr inbounds i32, ptr %.sink, i64 %27
  store i32 %2, ptr %28, align 4
  br label %29

29:                                               ; preds = %.sink.split, %17
  %30 = getelementptr inbounds nuw i8, ptr %0, i64 44
  %31 = load i32, ptr %30, align 4
  %32 = icmp eq i32 %31, 2
  br i1 %32, label %33, label %34

33:                                               ; preds = %29
  store i32 0, ptr %30, align 4
  br label %34

34:                                               ; preds = %33, %29
  ret void
}